target datalayout = "e-m:e-p270:32:32-p271:32:32-p272:64:64-i64:64-i128:128-f80:128-n8:16:32:64-S128"
target triple = "x86_64-unknown-linux-gnu"

%struct.redisServer = type { i32, i64, ptr, ptr, ptr, i32, i32, i32, i32, i32, ptr, ptr, ptr, ptr, ptr, ptr, i32, i32, i64, i32, i32, i32, i32, ptr, i32, i32, [41 x i8], i32, i64, i32, i32, i32, ptr, ptr, i32, i32, i64, ptr, ptr, ptr, ptr, [2 x i32], i32, i32, i32, i32, i32, [16 x ptr], i32, ptr, ptr, i32, [8 x %struct.connListener], i32, %struct.connListener, ptr, ptr, ptr, ptr, ptr, ptr, ptr, ptr, ptr, ptr, i32, ptr, i32, ptr, [3 x %struct.pause_event], [256 x i8], ptr, i64, i32, i32, i32, i32, i64, i32, i32, i32, i32, i32, i64, i64, i64, i64, i64, i64, i64, i64, i64, double, i64, i64, i64, i64, i64, i64, i64, i64, i64, i64, i64, i64, i64, i64, i64, i64, i64, i64, i64, i64, double, i64, i64, i64, i64, i64, ptr, i64, i64, i64, %struct.malloc_stats, i64, i64, i64, i64, i64, i64, i64, i64, i64, i64, i64, i64, double, [4 x i64], i64, i64, i64, i64, i64, i64, i64, i64, i64, i64, [7 x %struct.anon], i64, i64, i64, i64, i64, i64, [4 x %struct.durationStats], i32, i32, i32, i32, i32, i32, i32, i32, i32, i32, i64, i32, i32, i32, i32, i64, i64, i32, i32, i32, i32, i32, ptr, [3 x %struct.clientBufferLimitsConfig], i32, i32, ptr, i32, i32, i32, i32, ptr, ptr, i32, i32, i64, i64, i64, i64, i64, i32, i32, ptr, i32, i32, i64, i64, i64, i64, i64, i32, i32, i64, i32, i32, i32, i32, i32, i32, i32, i32, ptr, i32, i64, i64, i64, i64, ptr, i32, ptr, i32, i32, i32, i64, i64, i64, i64, i32, i32, i32, i32, i32, i32, ptr, i32, i32, ptr, i32, i32, i32, [2 x i32], i32, %struct.redisOpArray, i32, ptr, i32, ptr, i32, i32, i32, i32, i32, i32, i32, [41 x i8], [41 x i8], i64, i64, i64, i64, i32, i32, ptr, i64, i64, i64, i32, i32, i32, i32, i32, i32, i32, i64, ptr, ptr, ptr, ptr, i32, i32, ptr, ptr, i32, i32, i64, i64, i64, ptr, i32, ptr, i64, i32, i32, i32, i64, i32, i32, i32, i32, ptr, i32, i32, [41 x i8], i64, i32, ptr, i32, i32, i64, i64, i32, i32, i32, i32, i32, i64, [3 x i32], i32, i32, i32, [9 x i32], ptr, ptr, i32, i64, ptr, ptr, i32, i32, i32, i32, i64, i64, i64, i64, i64, i64, i64, i64, i64, i64, i32, i32, i64, i64, i32, i64, i64, i64, i64, i64, ptr, ptr, i32, ptr, i32, i32, i32, i64, i64, ptr, ptr, i32, i32, i32, i32, i32, ptr, ptr, ptr, i32, i32, i32, i32, i32, i32, i32, i64, i32, i64, i32, i32, i32, i32, i32, i32, i32, i64, ptr, ptr, i64, ptr, i32, %struct.aclInfo, i32, i64, i32, i32, i32, %struct.redisTLSContextConfig, ptr, ptr, ptr, ptr, ptr, i64, i32, ptr, i32, i32, i32, i64, i32, ptr }
%struct.connListener = type { [16 x i32], i32, ptr, i32, i32, ptr, ptr }
%struct.pause_event = type { i32, i64 }
%struct.malloc_stats = type { i64, i64, i64, i64, i64 }
%struct.anon = type { i64, i64, [16 x i64], i32 }
%struct.durationStats = type { i64, i64, i64 }
%struct.clientBufferLimitsConfig = type { i64, i64, i64 }
%struct.redisOpArray = type { ptr, i32, i32 }
%struct.aclInfo = type { i64, i64, i64, i64 }
%struct.redisTLSContextConfig = type { ptr, ptr, ptr, ptr, ptr, ptr, ptr, ptr, ptr, ptr, ptr, ptr, i32, i32, i32, i32 }
%struct.redisError = type { i64 }

@server = dso_local global %struct.redisServer zeroinitializer, align 8

; Function Attrs: nounwind uwtable
define dso_local void @incrementErrorCount(ptr noundef %fullerr, i64 noundef %namelen) #0 {
entry:
  %fullerr.addr = alloca ptr, align 8
  %namelen.addr = alloca i64, align 8
  %result = alloca ptr, align 8
  %error = alloca ptr, align 8
  %error3 = alloca ptr, align 8
  store ptr %fullerr, ptr %fullerr.addr, align 8
  store i64 %namelen, ptr %namelen.addr, align 8
  %0 = load ptr, ptr getelementptr inbounds (%struct.redisServer, ptr @server, i32 0, i32 15), align 8
  %1 = load ptr, ptr %fullerr.addr, align 8
  %2 = load i64, ptr %namelen.addr, align 8
  %call = call i32 @raxFind(ptr noundef %0, ptr noundef %1, i64 noundef %2, ptr noundef %result)
  %tobool = icmp ne i32 %call, 0
  br i1 %tobool, label %if.else, label %if.then

if.then:                                          ; preds = %entry
  %call1 = call noalias ptr @zmalloc(i64 noundef 8) #18
  store ptr %call1, ptr %error, align 8
  %3 = load ptr, ptr %error, align 8
  %count = getelementptr inbounds %struct.redisError, ptr %3, i32 0, i32 0
  store i64 1, ptr %count, align 8
  %4 = load ptr, ptr getelementptr inbounds (%struct.redisServer, ptr @server, i32 0, i32 15), align 8
  %5 = load ptr, ptr %fullerr.addr, align 8
  %6 = load i64, ptr %namelen.addr, align 8
  %7 = load ptr, ptr %error, align 8
  %call2 = call i32 @raxInsert(ptr noundef %4, ptr noundef %5, i64 noundef %6, ptr noundef %7, ptr noundef null)
  br label %if.end

if.else:                                          ; preds = %entry
  %8 = load ptr, ptr %result, align 8
  store ptr %8, ptr %error3, align 8
  %9 = load ptr, ptr %error3, align 8
  %count4 = getelementptr inbounds %struct.redisError, ptr %9, i32 0, i32 0
  %10 = load i64, ptr %count4, align 8
  %inc = add nsw i64 %10, 1
  store i64 %inc, ptr %count4, align 8
  br label %if.end

if.end:                                           ; preds = %if.else, %if.then
  ret void
}