; Function Attrs: nounwind uwtable
define dso_local void @incrementErrorCount(ptr noundef %fullerr, i64 noundef %namelen) local_unnamed_addr #0 {
entry:
  %result = alloca ptr, align 8
  %0 = load ptr, ptr getelementptr inbounds (%struct.redisServer, ptr @server, i64 0, i32 15), align 8
  %call = call i32 @raxFind(ptr noundef %0, ptr noundef %fullerr, i64 noundef %namelen, ptr noundef nonnull %result) #38
  %tobool.not = icmp eq i32 %call, 0
  br i1 %tobool.not, label %if.then, label %if.else

if.then:                                          ; preds = %entry
  %call1 = call noalias dereferenceable_or_null(8) ptr @zmalloc(i64 noundef 8) #42
  store i64 1, ptr %call1, align 8
  %1 = load ptr, ptr getelementptr inbounds (%struct.redisServer, ptr @server, i64 0, i32 15), align 8
  %call2 = call i32 @raxInsert(ptr noundef %1, ptr noundef %fullerr, i64 noundef %namelen, ptr noundef nonnull %call1, ptr noundef null) #38
  br label %if.end

if.else:                                          ; preds = %entry
  %2 = load ptr, ptr %result, align 8
  %3 = load i64, ptr %2, align 8
  %inc = add nsw i64 %3, 1
  store i64 %inc, ptr %2, align 8
  br label %if.end

if.end:                                           ; preds = %if.else, %if.then
  ret void
}